target datalayout = "e-m:e-p270:32:32-p271:32:32-p272:64:64-i64:64-i128:128-f80:128-n8:16:32:64-S128"
target triple = "x86_64-unknown-linux-gnu"

%"class.std::__cxx11::basic_string" = type { %"struct.std::__cxx11::basic_string<char>::_Alloc_hider", i64, %union.anon }
%"struct.std::__cxx11::basic_string<char>::_Alloc_hider" = type { ptr }
%union.anon = type { i64, [8 x i8] }

; Function Attrs: mustprogress nounwind uwtable
define linkonce_odr noundef ptr @_ZN7rocksdb14EncodeVarint64EPcm(ptr noundef %dst, i64 noundef %v) #1 comdat {
entry:
  %dst.addr = alloca ptr, align 8
  %v.addr = alloca i64, align 8
  %ptr = alloca ptr, align 8
  store ptr %dst, ptr %dst.addr, align 8
  store i64 %v, ptr %v.addr, align 8
  %0 = load ptr, ptr %dst.addr, align 8
  store ptr %0, ptr %ptr, align 8
  br label %while.cond

while.cond:                                       ; preds = %while.body, %entry
  %1 = load i64, ptr %v.addr, align 8
  %cmp = icmp uge i64 %1, 128
  br i1 %cmp, label %while.body, label %while.end

while.body:                                       ; preds = %while.cond
  %2 = load i64, ptr %v.addr, align 8
  %and = and i64 %2, 127
  %or = or i64 %and, 128
  %conv = trunc i64 %or to i8
  %3 = load ptr, ptr %ptr, align 8
  %incdec.ptr = getelementptr inbounds i8, ptr %3, i32 1
  store ptr %incdec.ptr, ptr %ptr, align 8
  store i8 %conv, ptr %3, align 1
  %4 = load i64, ptr %v.addr, align 8
  %shr = lshr i64 %4, 7
  store i64 %shr, ptr %v.addr, align 8
  br label %while.cond, !llvm.loop !8

while.end:                                        ; preds = %while.cond
  %5 = load i64, ptr %v.addr, align 8
  %conv1 = trunc i64 %5 to i8
  %6 = load ptr, ptr %ptr, align 8
  %incdec.ptr2 = getelementptr inbounds i8, ptr %6, i32 1
  store ptr %incdec.ptr2, ptr %ptr, align 8
  store i8 %conv1, ptr %6, align 1
  %7 = load ptr, ptr %ptr, align 8
  ret ptr %7
}

; Function Attrs: mustprogress uwtable
define linkonce_odr void @_ZN7rocksdb11PutVarint64EPNSt7__cxx1112basic_stringIcSt11char_traitsIcESaIcEEEm(ptr noundef %dst, i64 noundef %v) #0 comdat {
entry:
  %dst.addr = alloca ptr, align 8
  %v.addr = alloca i64, align 8
  %buf = alloca [10 x i8], align 1
  %ptr = alloca ptr, align 8
  store ptr %dst, ptr %dst.addr, align 8
  store i64 %v, ptr %v.addr, align 8
  %arraydecay = getelementptr inbounds [10 x i8], ptr %buf, i64 0, i64 0
  %0 = load i64, ptr %v.addr, align 8
  %call = call noundef ptr @_ZN7rocksdb14EncodeVarint64EPcm(ptr noundef %arraydecay, i64 noundef %0)
  store ptr %call, ptr %ptr, align 8
  %1 = load ptr, ptr %dst.addr, align 8
  %arraydecay1 = getelementptr inbounds [10 x i8], ptr %buf, i64 0, i64 0
  %2 = load ptr, ptr %ptr, align 8
  %arraydecay2 = getelementptr inbounds [10 x i8], ptr %buf, i64 0, i64 0
  %sub.ptr.lhs.cast = ptrtoint ptr %2 to i64
  %sub.ptr.rhs.cast = ptrtoint ptr %arraydecay2 to i64
  %sub.ptr.sub = sub i64 %sub.ptr.lhs.cast, %sub.ptr.rhs.cast
  %call3 = call noundef nonnull align 8 dereferenceable(32) ptr @_ZNSt7__cxx1112basic_stringIcSt11char_traitsIcESaIcEE6appendEPKcm(ptr noundef nonnull align 8 dereferenceable(32) %1, ptr noundef %arraydecay1, i64 noundef %sub.ptr.sub)
  ret void
}

; Function Attrs: mustprogress uwtable
define void @_ZN7rocksdb20PropertyBlockBuilder3AddERKNSt7__cxx1112basic_stringIcSt11char_traitsIcESaIcEEEm(ptr noundef nonnull align 8 dereferenceable(56) %this, ptr noundef nonnull align 8 dereferenceable(32) %name, i64 noundef %val) #0 align 2 personality ptr @__gxx_personality_v0 {
entry:
  %this.addr = alloca ptr, align 8
  %name.addr = alloca ptr, align 8
  %val.addr = alloca i64, align 8
  %dst = alloca %"class.std::__cxx11::basic_string", align 8
  %exn.slot = alloca ptr, align 8
  %ehselector.slot = alloca i32, align 4
  store ptr %this, ptr %this.addr, align 8
  store ptr %name, ptr %name.addr, align 8
  store i64 %val, ptr %val.addr, align 8
  %this1 = load ptr, ptr %this.addr, align 8
  call void @_ZNSt7__cxx1112basic_stringIcSt11char_traitsIcESaIcEEC1Ev(ptr noundef nonnull align 8 dereferenceable(32) %dst) #3
  %0 = load i64, ptr %val.addr, align 8
  invoke void @_ZN7rocksdb11PutVarint64EPNSt7__cxx1112basic_stringIcSt11char_traitsIcESaIcEEEm(ptr noundef %dst, i64 noundef %0)
          to label %invoke.cont unwind label %lpad

invoke.cont:                                      ; preds = %entry
  %1 = load ptr, ptr %name.addr, align 8
  invoke void @_ZN7rocksdb20PropertyBlockBuilder3AddERKNSt7__cxx1112basic_stringIcSt11char_traitsIcESaIcEEES8_(ptr noundef nonnull align 8 dereferenceable(56) %this1, ptr noundef nonnull align 8 dereferenceable(32) %1, ptr noundef nonnull align 8 dereferenceable(32) %dst)
          to label %invoke.cont2 unwind label %lpad

invoke.cont2:                                     ; preds = %invoke.cont
  call void @_ZNSt7__cxx1112basic_stringIcSt11char_traitsIcESaIcEED1Ev(ptr noundef nonnull align 8 dereferenceable(32) %dst) #3
  ret void

lpad:                                             ; preds = %invoke.cont, %entry
  %2 = landingpad { ptr, i32 }
          cleanup
  %3 = extractvalue { ptr, i32 } %2, 0
  store ptr %3, ptr %exn.slot, align 8
  %4 = extractvalue { ptr, i32 } %2, 1
  store i32 %4, ptr %ehselector.slot, align 4
  call void @_ZNSt7__cxx1112basic_stringIcSt11char_traitsIcESaIcEED1Ev(ptr noundef nonnull align 8 dereferenceable(32) %dst) #3
  br label %eh.resume

eh.resume:                                        ; preds = %lpad
  %exn = load ptr, ptr %exn.slot, align 8
  %sel = load i32, ptr %ehselector.slot, align 4
  %lpad.val = insertvalue { ptr, i32 } poison, ptr %exn, 0
  %lpad.val3 = insertvalue { ptr, i32 } %lpad.val, i32 %sel, 1
  resume { ptr, i32 } %lpad.val3
}