; Function Attrs: mustprogress uwtable
define void @_ZN7rocksdb20PropertyBlockBuilder3AddERKNSt7__cxx1112basic_stringIcSt11char_traitsIcESaIcEEEm(ptr noundef nonnull align 8 dereferenceable(56) %this, ptr noundef nonnull align 8 dereferenceable(32) %name, i64 noundef %val) local_unnamed_addr #3 align 2 personality ptr @__gxx_personality_v0 {
entry:
  %buf.i = alloca [10 x i8], align 1
  %dst = alloca %"class.std::__cxx11::basic_string", align 8
  call void @_ZNSt7__cxx1112basic_stringIcSt11char_traitsIcESaIcEEC1Ev(ptr noundef nonnull align 8 dereferenceable(32) %dst) #20
  call void @llvm.lifetime.start.p0(i64 10, ptr nonnull %buf.i)
  %cmp6.i.i = icmp ugt i64 %val, 127
  br i1 %cmp6.i.i, label %while.body.i.i, label %_ZN7rocksdb14EncodeVarint64EPcm.exit.i

while.body.i.i:                                   ; preds = %entry, %while.body.i.i
  %ptr.08.i.i = phi ptr [ %incdec.ptr.i.i, %while.body.i.i ], [ %buf.i, %entry ]
  %v.addr.07.i.i = phi i64 [ %shr.i.i, %while.body.i.i ], [ %val, %entry ]
  %0 = trunc i64 %v.addr.07.i.i to i8
  %conv.i.i = or i8 %0, -128
  %incdec.ptr.i.i = getelementptr inbounds i8, ptr %ptr.08.i.i, i64 1
  store i8 %conv.i.i, ptr %ptr.08.i.i, align 1
  %shr.i.i = lshr i64 %v.addr.07.i.i, 7
  %cmp.i.i = icmp ugt i64 %v.addr.07.i.i, 16383
  br i1 %cmp.i.i, label %while.body.i.i, label %_ZN7rocksdb14EncodeVarint64EPcm.exit.i, !llvm.loop !4

_ZN7rocksdb14EncodeVarint64EPcm.exit.i:           ; preds = %while.body.i.i, %entry
  %v.addr.0.lcssa.i.i = phi i64 [ %val, %entry ], [ %shr.i.i, %while.body.i.i ]
  %ptr.0.lcssa.i.i = phi ptr [ %buf.i, %entry ], [ %incdec.ptr.i.i, %while.body.i.i ]
  %conv1.i.i = trunc i64 %v.addr.0.lcssa.i.i to i8
  %incdec.ptr2.i.i = getelementptr inbounds i8, ptr %ptr.0.lcssa.i.i, i64 1
  store i8 %conv1.i.i, ptr %ptr.0.lcssa.i.i, align 1
  %sub.ptr.lhs.cast.i = ptrtoint ptr %incdec.ptr2.i.i to i64
  %sub.ptr.rhs.cast.i = ptrtoint ptr %buf.i to i64
  %sub.ptr.sub.i = sub i64 %sub.ptr.lhs.cast.i, %sub.ptr.rhs.cast.i
  %call3.i1 = invoke noundef nonnull align 8 dereferenceable(32) ptr @_ZNSt7__cxx1112basic_stringIcSt11char_traitsIcESaIcEE6appendEPKcm(ptr noundef nonnull align 8 dereferenceable(32) %dst, ptr noundef nonnull %buf.i, i64 noundef %sub.ptr.sub.i)
          to label %invoke.cont unwind label %lpad

invoke.cont:                                      ; preds = %_ZN7rocksdb14EncodeVarint64EPcm.exit.i
  call void @llvm.lifetime.end.p0(i64 10, ptr nonnull %buf.i)
  invoke void @_ZN7rocksdb20PropertyBlockBuilder3AddERKNSt7__cxx1112basic_stringIcSt11char_traitsIcESaIcEEES8_(ptr noundef nonnull align 8 dereferenceable(56) %this, ptr noundef nonnull align 8 dereferenceable(32) %name, ptr noundef nonnull align 8 dereferenceable(32) %dst)
          to label %invoke.cont2 unwind label %lpad

invoke.cont2:                                     ; preds = %invoke.cont
  call void @_ZNSt7__cxx1112basic_stringIcSt11char_traitsIcESaIcEED1Ev(ptr noundef nonnull align 8 dereferenceable(32) %dst) #20
  ret void

lpad:                                             ; preds = %_ZN7rocksdb14EncodeVarint64EPcm.exit.i, %invoke.cont
  %1 = landingpad { ptr, i32 }
          cleanup
  call void @_ZNSt7__cxx1112basic_stringIcSt11char_traitsIcESaIcEED1Ev(ptr noundef nonnull align 8 dereferenceable(32) %dst) #20
  resume { ptr, i32 } %1
}